ARM GAS  /var/folders/0v/t9z_0lmj7rg_7k19_3xv9hqr0000gn/T//ccOeRaHQ.s 			page 1


   1              		.cpu cortex-m4
   2              		.arch armv7e-m
   3              		.fpu fpv4-sp-d16
   4              		.eabi_attribute 27, 1
   5              		.eabi_attribute 28, 1
   6              		.eabi_attribute 20, 1
   7              		.eabi_attribute 21, 1
   8              		.eabi_attribute 23, 3
   9              		.eabi_attribute 24, 1
  10              		.eabi_attribute 25, 1
  11              		.eabi_attribute 26, 1
  12              		.eabi_attribute 30, 1
  13              		.eabi_attribute 34, 1
  14              		.eabi_attribute 18, 4
  15              		.file	"freertos.c"
  16              		.text
  17              	.Ltext0:
  18              		.cfi_sections	.debug_frame
  19              		.file 1 "Core/Src/freertos.c"
  20              		.section	.rodata.StartDefaultTask.str1.4,"aMS",%progbits,1
  21              		.align	2
  22              	.LC0:
  23 0000 426F6F74 		.ascii	"Boot Complete.\015\012\000"
  23      20436F6D 
  23      706C6574 
  23      652E0D0A 
  23      00
  24              		.section	.text.StartDefaultTask,"ax",%progbits
  25              		.align	1
  26              		.global	StartDefaultTask
  27              		.syntax unified
  28              		.thumb
  29              		.thumb_func
  31              	StartDefaultTask:
  32              	.LVL0:
  33              	.LFB142:
   1:Core/Src/freertos.c **** /* USER CODE BEGIN Header */
   2:Core/Src/freertos.c **** /**
   3:Core/Src/freertos.c ****   ******************************************************************************
   4:Core/Src/freertos.c ****   * File Name          : freertos.c
   5:Core/Src/freertos.c ****   * Description        : Code for freertos applications
   6:Core/Src/freertos.c ****   ******************************************************************************
   7:Core/Src/freertos.c ****   * @attention
   8:Core/Src/freertos.c ****   *
   9:Core/Src/freertos.c ****   * Copyright (c) 2026 STMicroelectronics.
  10:Core/Src/freertos.c ****   * All rights reserved.
  11:Core/Src/freertos.c ****   *
  12:Core/Src/freertos.c ****   * This software is licensed under terms that can be found in the LICENSE file
  13:Core/Src/freertos.c ****   * in the root directory of this software component.
  14:Core/Src/freertos.c ****   * If no LICENSE file comes with this software, it is provided AS-IS.
  15:Core/Src/freertos.c ****   *
  16:Core/Src/freertos.c ****   ******************************************************************************
  17:Core/Src/freertos.c ****   */
  18:Core/Src/freertos.c **** /* USER CODE END Header */
  19:Core/Src/freertos.c **** 
  20:Core/Src/freertos.c **** /* Includes ------------------------------------------------------------------*/
  21:Core/Src/freertos.c **** #include "FreeRTOS.h"
ARM GAS  /var/folders/0v/t9z_0lmj7rg_7k19_3xv9hqr0000gn/T//ccOeRaHQ.s 			page 2


  22:Core/Src/freertos.c **** #include "task.h"
  23:Core/Src/freertos.c **** #include "main.h"
  24:Core/Src/freertos.c **** #include "cmsis_os.h"
  25:Core/Src/freertos.c **** 
  26:Core/Src/freertos.c **** /* Private includes ----------------------------------------------------------*/
  27:Core/Src/freertos.c **** /* USER CODE BEGIN Includes */
  28:Core/Src/freertos.c **** #include "ssd1306.h"
  29:Core/Src/freertos.c **** #include "ssd1306_font.h"
  30:Core/Src/freertos.c **** #include "makeqrcode.h"
  31:Core/Src/freertos.c **** #include "usart.h"
  32:Core/Src/freertos.c **** #include <stdio.h>
  33:Core/Src/freertos.c **** #include <string.h>
  34:Core/Src/freertos.c **** /* USER CODE END Includes */
  35:Core/Src/freertos.c **** 
  36:Core/Src/freertos.c **** /* Private typedef -----------------------------------------------------------*/
  37:Core/Src/freertos.c **** /* USER CODE BEGIN PTD */
  38:Core/Src/freertos.c **** 
  39:Core/Src/freertos.c **** /* USER CODE END PTD */
  40:Core/Src/freertos.c **** 
  41:Core/Src/freertos.c **** /* Private define ------------------------------------------------------------*/
  42:Core/Src/freertos.c **** /* USER CODE BEGIN PD */
  43:Core/Src/freertos.c **** #define CPU_MEASURE_PERIOD_MS 500
  44:Core/Src/freertos.c **** /* USER CODE END PD */
  45:Core/Src/freertos.c **** 
  46:Core/Src/freertos.c **** /* Private macro -------------------------------------------------------------*/
  47:Core/Src/freertos.c **** /* USER CODE BEGIN PM */
  48:Core/Src/freertos.c **** 
  49:Core/Src/freertos.c **** /* USER CODE END PM */
  50:Core/Src/freertos.c **** 
  51:Core/Src/freertos.c **** /* Private variables ---------------------------------------------------------*/
  52:Core/Src/freertos.c **** /* USER CODE BEGIN Variables */
  53:Core/Src/freertos.c **** volatile uint32_t idleCount = 0;
  54:Core/Src/freertos.c **** volatile uint32_t idleCountMax = 0;
  55:Core/Src/freertos.c **** volatile float cpuUsage = 0.0f;
  56:Core/Src/freertos.c **** /* USER CODE END Variables */
  57:Core/Src/freertos.c **** /* Definitions for defaultTask */
  58:Core/Src/freertos.c **** osThreadId_t defaultTaskHandle;
  59:Core/Src/freertos.c **** const osThreadAttr_t defaultTask_attributes = {
  60:Core/Src/freertos.c ****   .name = "defaultTask",
  61:Core/Src/freertos.c ****   .stack_size = 512 * 4,
  62:Core/Src/freertos.c ****   .priority = (osPriority_t) osPriorityNormal,
  63:Core/Src/freertos.c **** };
  64:Core/Src/freertos.c **** 
  65:Core/Src/freertos.c **** /* Private function prototypes -----------------------------------------------*/
  66:Core/Src/freertos.c **** /* USER CODE BEGIN FunctionPrototypes */
  67:Core/Src/freertos.c **** 
  68:Core/Src/freertos.c **** /* USER CODE END FunctionPrototypes */
  69:Core/Src/freertos.c **** 
  70:Core/Src/freertos.c **** void StartDefaultTask(void *argument);
  71:Core/Src/freertos.c **** 
  72:Core/Src/freertos.c **** void MX_FREERTOS_Init(void); /* (MISRA C 2004 rule 8.1) */
  73:Core/Src/freertos.c **** 
  74:Core/Src/freertos.c **** /**
  75:Core/Src/freertos.c ****   * @brief  FreeRTOS initialization
  76:Core/Src/freertos.c ****   * @param  None
  77:Core/Src/freertos.c ****   * @retval None
  78:Core/Src/freertos.c ****   */
ARM GAS  /var/folders/0v/t9z_0lmj7rg_7k19_3xv9hqr0000gn/T//ccOeRaHQ.s 			page 3


  79:Core/Src/freertos.c **** void MX_FREERTOS_Init(void) {
  80:Core/Src/freertos.c ****   /* USER CODE BEGIN Init */
  81:Core/Src/freertos.c **** 
  82:Core/Src/freertos.c ****   /* USER CODE END Init */
  83:Core/Src/freertos.c **** 
  84:Core/Src/freertos.c ****   /* USER CODE BEGIN RTOS_MUTEX */
  85:Core/Src/freertos.c ****   /* add mutexes, ... */
  86:Core/Src/freertos.c ****   /* USER CODE END RTOS_MUTEX */
  87:Core/Src/freertos.c **** 
  88:Core/Src/freertos.c ****   /* USER CODE BEGIN RTOS_SEMAPHORES */
  89:Core/Src/freertos.c ****   /* add semaphores, ... */
  90:Core/Src/freertos.c ****   /* USER CODE END RTOS_SEMAPHORES */
  91:Core/Src/freertos.c **** 
  92:Core/Src/freertos.c ****   /* USER CODE BEGIN RTOS_TIMERS */
  93:Core/Src/freertos.c ****   /* start timers, add new ones, ... */
  94:Core/Src/freertos.c ****   /* USER CODE END RTOS_TIMERS */
  95:Core/Src/freertos.c **** 
  96:Core/Src/freertos.c ****   /* USER CODE BEGIN RTOS_QUEUES */
  97:Core/Src/freertos.c ****   /* add queues, ... */
  98:Core/Src/freertos.c ****   /* USER CODE END RTOS_QUEUES */
  99:Core/Src/freertos.c **** 
 100:Core/Src/freertos.c ****   /* Create the thread(s) */
 101:Core/Src/freertos.c ****   /* creation of defaultTask */
 102:Core/Src/freertos.c ****   defaultTaskHandle = osThreadNew(StartDefaultTask, NULL, &defaultTask_attributes);
 103:Core/Src/freertos.c **** 
 104:Core/Src/freertos.c ****   /* USER CODE BEGIN RTOS_THREADS */
 105:Core/Src/freertos.c ****   /* add threads, ... */
 106:Core/Src/freertos.c ****   /* USER CODE END RTOS_THREADS */
 107:Core/Src/freertos.c **** 
 108:Core/Src/freertos.c ****   /* USER CODE BEGIN RTOS_EVENTS */
 109:Core/Src/freertos.c ****   /* add events, ... */
 110:Core/Src/freertos.c ****   /* USER CODE END RTOS_EVENTS */
 111:Core/Src/freertos.c **** 
 112:Core/Src/freertos.c **** }
 113:Core/Src/freertos.c **** 
 114:Core/Src/freertos.c **** /* USER CODE BEGIN Header_StartDefaultTask */
 115:Core/Src/freertos.c **** /**
 116:Core/Src/freertos.c ****   * @brief  Function implementing the defaultTask thread.
 117:Core/Src/freertos.c ****   * @param  argument: Not used
 118:Core/Src/freertos.c ****   * @retval None
 119:Core/Src/freertos.c ****   */
 120:Core/Src/freertos.c **** /* USER CODE END Header_StartDefaultTask */
 121:Core/Src/freertos.c **** void StartDefaultTask(void *argument)
 122:Core/Src/freertos.c **** {
  34              		.loc 1 122 1 view -0
  35              		.cfi_startproc
  36              		@ args = 0, pretend = 0, frame = 24
  37              		@ frame_needed = 0, uses_anonymous_args = 0
  38              		.loc 1 122 1 is_stmt 0 view .LVU1
  39 0000 30B5     		push	{r4, r5, lr}
  40              	.LCFI0:
  41              		.cfi_def_cfa_offset 12
  42              		.cfi_offset 4, -12
  43              		.cfi_offset 5, -8
  44              		.cfi_offset 14, -4
  45 0002 87B0     		sub	sp, sp, #28
  46              	.LCFI1:
ARM GAS  /var/folders/0v/t9z_0lmj7rg_7k19_3xv9hqr0000gn/T//ccOeRaHQ.s 			page 4


  47              		.cfi_def_cfa_offset 40
 123:Core/Src/freertos.c ****   /* USER CODE BEGIN StartDefaultTask */
 124:Core/Src/freertos.c ****   char msg[] = "Boot Complete.\r\n";
  48              		.loc 1 124 3 is_stmt 1 view .LVU2
  49              		.loc 1 124 8 is_stmt 0 view .LVU3
  50 0004 0DF1040C 		add	ip, sp, #4
  51 0008 1A4C     		ldr	r4, .L4
  52 000a 0FCC     		ldmia	r4!, {r0, r1, r2, r3}
  53              	.LVL1:
  54              		.loc 1 124 8 view .LVU4
  55 000c ACE80F00 		stmia	ip!, {r0, r1, r2, r3}
  56 0010 2368     		ldr	r3, [r4]
  57 0012 8CF80030 		strb	r3, [ip]
 125:Core/Src/freertos.c ****   HAL_UART_Transmit(&huart2, (uint8_t*)msg, strlen(msg), HAL_MAX_DELAY);
  58              		.loc 1 125 3 is_stmt 1 view .LVU5
  59              		.loc 1 125 45 is_stmt 0 view .LVU6
  60 0016 01A8     		add	r0, sp, #4
  61 0018 FFF7FEFF 		bl	strlen
  62              	.LVL2:
  63              		.loc 1 125 3 discriminator 1 view .LVU7
  64 001c 4FF0FF33 		mov	r3, #-1
  65 0020 82B2     		uxth	r2, r0
  66 0022 01A9     		add	r1, sp, #4
  67 0024 1448     		ldr	r0, .L4+4
  68 0026 FFF7FEFF 		bl	HAL_UART_Transmit
  69              	.LVL3:
 126:Core/Src/freertos.c ****   SSD1306_Init();
  70              		.loc 1 126 3 is_stmt 1 view .LVU8
  71 002a FFF7FEFF 		bl	SSD1306_Init
  72              	.LVL4:
 127:Core/Src/freertos.c ****   SSD1306_Fill(0);
  73              		.loc 1 127 3 view .LVU9
  74 002e 0020     		movs	r0, #0
  75 0030 FFF7FEFF 		bl	SSD1306_Fill
  76              	.LVL5:
 128:Core/Src/freertos.c ****   SSD1306_SetCursor(0, 0);
  77              		.loc 1 128 3 view .LVU10
  78 0034 0021     		movs	r1, #0
  79 0036 0846     		mov	r0, r1
  80 0038 FFF7FEFF 		bl	SSD1306_SetCursor
  81              	.LVL6:
 129:Core/Src/freertos.c ****   SSD1306_UpdateScreen();
  82              		.loc 1 129 3 view .LVU11
  83 003c FFF7FEFF 		bl	SSD1306_UpdateScreen
  84              	.LVL7:
 130:Core/Src/freertos.c ****   osDelay(100);
  85              		.loc 1 130 3 view .LVU12
  86 0040 6420     		movs	r0, #100
  87 0042 FFF7FEFF 		bl	osDelay
  88              	.LVL8:
 131:Core/Src/freertos.c ****   
 132:Core/Src/freertos.c ****   idleCount = 0;
  89              		.loc 1 132 3 view .LVU13
  90              		.loc 1 132 13 is_stmt 0 view .LVU14
  91 0046 0D4D     		ldr	r5, .L4+8
  92 0048 0024     		movs	r4, #0
  93 004a 2C60     		str	r4, [r5]
ARM GAS  /var/folders/0v/t9z_0lmj7rg_7k19_3xv9hqr0000gn/T//ccOeRaHQ.s 			page 5


 133:Core/Src/freertos.c ****   osDelay(CPU_MEASURE_PERIOD_MS);
  94              		.loc 1 133 3 is_stmt 1 view .LVU15
  95 004c 4FF4FA70 		mov	r0, #500
  96 0050 FFF7FEFF 		bl	osDelay
  97              	.LVL9:
 134:Core/Src/freertos.c ****   idleCountMax = idleCount;
  98              		.loc 1 134 3 view .LVU16
  99              		.loc 1 134 16 is_stmt 0 view .LVU17
 100 0054 2A68     		ldr	r2, [r5]
 101 0056 0A4B     		ldr	r3, .L4+12
 102 0058 1A60     		str	r2, [r3]
 135:Core/Src/freertos.c ****   idleCount = 0;
 103              		.loc 1 135 3 is_stmt 1 view .LVU18
 104              		.loc 1 135 13 is_stmt 0 view .LVU19
 105 005a 2C60     		str	r4, [r5]
 136:Core/Src/freertos.c ****   
 137:Core/Src/freertos.c ****   char buff[32];
 106              		.loc 1 137 3 is_stmt 1 view .LVU20
 138:Core/Src/freertos.c ****   uint32_t prevTick = osKernelGetTickCount();
 107              		.loc 1 138 3 view .LVU21
 108              		.loc 1 138 23 is_stmt 0 view .LVU22
 109 005c FFF7FEFF 		bl	osKernelGetTickCount
 110              	.LVL10:
 139:Core/Src/freertos.c ****   
 140:Core/Src/freertos.c ****   createQR();
 111              		.loc 1 140 3 is_stmt 1 view .LVU23
 112 0060 FFF7FEFF 		bl	createQR
 113              	.LVL11:
 141:Core/Src/freertos.c ****   renderQR(20, 0);
 114              		.loc 1 141 3 view .LVU24
 115 0064 2146     		mov	r1, r4
 116 0066 1420     		movs	r0, #20
 117 0068 FFF7FEFF 		bl	renderQR
 118              	.LVL12:
 142:Core/Src/freertos.c ****   SSD1306_UpdateScreen();
 119              		.loc 1 142 3 view .LVU25
 120 006c FFF7FEFF 		bl	SSD1306_UpdateScreen
 121              	.LVL13:
 122              	.L2:
 143:Core/Src/freertos.c ****   /* Infinite loop */
 144:Core/Src/freertos.c ****   for(;;)
 123              		.loc 1 144 3 view .LVU26
 145:Core/Src/freertos.c ****   {
 146:Core/Src/freertos.c ****     // idleCount = 0;
 147:Core/Src/freertos.c **** 
 148:Core/Src/freertos.c ****     // SSD1306_Fill(0);
 149:Core/Src/freertos.c ****     // sprintf(buff, "CPU: %.1f %%", cpuUsage);
 150:Core/Src/freertos.c ****     // SSD1306_SetCursor(0, 0);
 151:Core/Src/freertos.c ****     // SSD1306_WriteString(buff, 1);
 152:Core/Src/freertos.c **** 
 153:Core/Src/freertos.c ****     // sprintf(buff, "Max: %lu", idleCountMax);
 154:Core/Src/freertos.c ****     // SSD1306_SetCursor(0, 20);
 155:Core/Src/freertos.c ****     // SSD1306_WriteString(buff, 1);
 156:Core/Src/freertos.c **** 
 157:Core/Src/freertos.c ****     // SSD1306_UpdateScreen();
 158:Core/Src/freertos.c **** 
 159:Core/Src/freertos.c ****     // HAL_GPIO_TogglePin(LD2_GPIO_Port, LD2_Pin);
ARM GAS  /var/folders/0v/t9z_0lmj7rg_7k19_3xv9hqr0000gn/T//ccOeRaHQ.s 			page 6


 160:Core/Src/freertos.c **** 
 161:Core/Src/freertos.c ****     // prevTick += CPU_MEASURE_PERIOD_MS;
 162:Core/Src/freertos.c ****     // osDelayUntil(prevTick);
 163:Core/Src/freertos.c **** 
 164:Core/Src/freertos.c ****     // if(idleCountMax > 0)
 165:Core/Src/freertos.c ****     // {
 166:Core/Src/freertos.c ****     //   cpuUsage = 100.0f - ((float)idleCount / (float)idleCountMax * 100.0f);
 167:Core/Src/freertos.c ****     //   if(cpuUsage < 0) cpuUsage = 0;
 168:Core/Src/freertos.c ****     // }
 169:Core/Src/freertos.c ****   }
 124              		.loc 1 169 3 view .LVU27
 144:Core/Src/freertos.c ****   {
 125              		.loc 1 144 3 view .LVU28
 126 0070 FEE7     		b	.L2
 127              	.L5:
 128 0072 00BF     		.align	2
 129              	.L4:
 130 0074 00000000 		.word	.LC0
 131 0078 00000000 		.word	huart2
 132 007c 00000000 		.word	idleCount
 133 0080 00000000 		.word	idleCountMax
 134              		.cfi_endproc
 135              	.LFE142:
 137              		.section	.text.MX_FREERTOS_Init,"ax",%progbits
 138              		.align	1
 139              		.global	MX_FREERTOS_Init
 140              		.syntax unified
 141              		.thumb
 142              		.thumb_func
 144              	MX_FREERTOS_Init:
 145              	.LFB141:
  79:Core/Src/freertos.c ****   /* USER CODE BEGIN Init */
 146              		.loc 1 79 29 view -0
 147              		.cfi_startproc
 148              		@ args = 0, pretend = 0, frame = 0
 149              		@ frame_needed = 0, uses_anonymous_args = 0
 150 0000 08B5     		push	{r3, lr}
 151              	.LCFI2:
 152              		.cfi_def_cfa_offset 8
 153              		.cfi_offset 3, -8
 154              		.cfi_offset 14, -4
 102:Core/Src/freertos.c **** 
 155              		.loc 1 102 3 view .LVU30
 102:Core/Src/freertos.c **** 
 156              		.loc 1 102 23 is_stmt 0 view .LVU31
 157 0002 044A     		ldr	r2, .L8
 158 0004 0021     		movs	r1, #0
 159 0006 0448     		ldr	r0, .L8+4
 160 0008 FFF7FEFF 		bl	osThreadNew
 161              	.LVL14:
 102:Core/Src/freertos.c **** 
 162              		.loc 1 102 21 discriminator 1 view .LVU32
 163 000c 034B     		ldr	r3, .L8+8
 164 000e 1860     		str	r0, [r3]
 112:Core/Src/freertos.c **** 
 165              		.loc 1 112 1 view .LVU33
 166 0010 08BD     		pop	{r3, pc}
ARM GAS  /var/folders/0v/t9z_0lmj7rg_7k19_3xv9hqr0000gn/T//ccOeRaHQ.s 			page 7


 167              	.L9:
 168 0012 00BF     		.align	2
 169              	.L8:
 170 0014 00000000 		.word	defaultTask_attributes
 171 0018 00000000 		.word	StartDefaultTask
 172 001c 00000000 		.word	defaultTaskHandle
 173              		.cfi_endproc
 174              	.LFE141:
 176              		.section	.text.vApplicationIdleHook,"ax",%progbits
 177              		.align	1
 178              		.global	vApplicationIdleHook
 179              		.syntax unified
 180              		.thumb
 181              		.thumb_func
 183              	vApplicationIdleHook:
 184              	.LFB143:
 170:Core/Src/freertos.c ****   /* USER CODE END StartDefaultTask */
 171:Core/Src/freertos.c **** }
 172:Core/Src/freertos.c **** 
 173:Core/Src/freertos.c **** /* Private application code --------------------------------------------------*/
 174:Core/Src/freertos.c **** /* USER CODE BEGIN Application */
 175:Core/Src/freertos.c **** void vApplicationIdleHook(void)
 176:Core/Src/freertos.c **** {
 185              		.loc 1 176 1 is_stmt 1 view -0
 186              		.cfi_startproc
 187              		@ args = 0, pretend = 0, frame = 0
 188              		@ frame_needed = 0, uses_anonymous_args = 0
 189              		@ link register save eliminated.
 177:Core/Src/freertos.c ****   if(idleCount < UINT32_MAX- 1000) idleCount++;
 190              		.loc 1 177 3 view .LVU35
 191              		.loc 1 177 16 is_stmt 0 view .LVU36
 192 0000 054B     		ldr	r3, .L12
 193 0002 1A68     		ldr	r2, [r3]
 194              		.loc 1 177 5 view .LVU37
 195 0004 6FF47A73 		mvn	r3, #1000
 196 0008 9A42     		cmp	r2, r3
 197 000a 03D2     		bcs	.L10
 198              		.loc 1 177 36 is_stmt 1 discriminator 1 view .LVU38
 199              		.loc 1 177 45 is_stmt 0 discriminator 1 view .LVU39
 200 000c 024A     		ldr	r2, .L12
 201 000e 1368     		ldr	r3, [r2]
 202 0010 0133     		adds	r3, r3, #1
 203 0012 1360     		str	r3, [r2]
 204              	.L10:
 178:Core/Src/freertos.c **** }
 205              		.loc 1 178 1 view .LVU40
 206 0014 7047     		bx	lr
 207              	.L13:
 208 0016 00BF     		.align	2
 209              	.L12:
 210 0018 00000000 		.word	idleCount
 211              		.cfi_endproc
 212              	.LFE143:
 214              		.global	defaultTask_attributes
 215              		.section	.rodata.str1.4,"aMS",%progbits,1
 216              		.align	2
 217              	.LC1:
ARM GAS  /var/folders/0v/t9z_0lmj7rg_7k19_3xv9hqr0000gn/T//ccOeRaHQ.s 			page 8


 218 0000 64656661 		.ascii	"defaultTask\000"
 218      756C7454 
 218      61736B00 
 219              		.section	.rodata.defaultTask_attributes,"a"
 220              		.align	2
 223              	defaultTask_attributes:
 224 0000 00000000 		.word	.LC1
 225 0004 00000000 		.space	16
 225      00000000 
 225      00000000 
 225      00000000 
 226 0014 00080000 		.word	2048
 227 0018 18000000 		.word	24
 228 001c 00000000 		.space	8
 228      00000000 
 229              		.global	defaultTaskHandle
 230              		.section	.bss.defaultTaskHandle,"aw",%nobits
 231              		.align	2
 234              	defaultTaskHandle:
 235 0000 00000000 		.space	4
 236              		.global	cpuUsage
 237              		.section	.bss.cpuUsage,"aw",%nobits
 238              		.align	2
 241              	cpuUsage:
 242 0000 00000000 		.space	4
 243              		.global	idleCountMax
 244              		.section	.bss.idleCountMax,"aw",%nobits
 245              		.align	2
 248              	idleCountMax:
 249 0000 00000000 		.space	4
 250              		.global	idleCount
 251              		.section	.bss.idleCount,"aw",%nobits
 252              		.align	2
 255              	idleCount:
 256 0000 00000000 		.space	4
 257              		.text
 258              	.Letext0:
 259              		.file 2 "/Applications/STM32CubeIDE.app/Contents/Eclipse/plugins/com.st.stm32cube.ide.mcu.external
 260              		.file 3 "/Applications/STM32CubeIDE.app/Contents/Eclipse/plugins/com.st.stm32cube.ide.mcu.external
 261              		.file 4 "/Applications/STM32CubeIDE.app/Contents/Eclipse/plugins/com.st.stm32cube.ide.mcu.external
 262              		.file 5 "Drivers/CMSIS/Device/ST/STM32F4xx/Include/stm32f411xe.h"
 263              		.file 6 "Drivers/STM32F4xx_HAL_Driver/Inc/stm32f4xx_hal_def.h"
 264              		.file 7 "Drivers/STM32F4xx_HAL_Driver/Inc/stm32f4xx_hal_dma.h"
 265              		.file 8 "Drivers/STM32F4xx_HAL_Driver/Inc/stm32f4xx_hal_uart.h"
 266              		.file 9 "Middlewares/Third_Party/FreeRTOS/Source/CMSIS_RTOS_V2/cmsis_os2.h"
 267              		.file 10 "Core/Inc/usart.h"
 268              		.file 11 "Core/Inc/makeqrcode.h"
 269              		.file 12 "Core/Inc/ssd1306.h"
 270              		.file 13 "Core/Inc/ssd1306_font.h"
 271              		.file 14 "/Applications/STM32CubeIDE.app/Contents/Eclipse/plugins/com.st.stm32cube.ide.mcu.externa
ARM GAS  /var/folders/0v/t9z_0lmj7rg_7k19_3xv9hqr0000gn/T//ccOeRaHQ.s 			page 9

